(dp1
S'failed'
p2
(lp3
S'7'
asS'source_names'
p4
(lp5
S'.'
asS'ids'
p6
(dp7
I1
(S'/home/davide/coding/projects/lyricseek/src/test/test_getlyrics.py'
S'test_getlyrics'
p8
S'TestGetLyrics.test_bad_analyzer'
tp9
sI2
(S'/home/davide/coding/projects/lyricseek/src/test/test_getlyrics.py'
g8
S'TestGetLyrics.test_best_found'
tp10
sI3
(S'/home/davide/coding/projects/lyricseek/src/test/test_getlyrics.py'
g8
S'TestGetLyrics.test_error_handling'
tp11
sI4
(S'/home/davide/coding/projects/lyricseek/src/test/test_getlyrics.py'
g8
S'TestGetLyrics.test_first_advanced_match'
tp12
sI5
(S'/home/davide/coding/projects/lyricseek/src/test/test_getlyrics.py'
g8
S'TestGetLyrics.test_first_dont_match'
tp13
sI6
(S'/home/davide/coding/projects/lyricseek/src/test/test_getlyrics.py'
g8
S'TestGetLyrics.test_first_match'
tp14
sI7
(S'/home/davide/coding/projects/lyricseek/src/test/test_getlyrics.py'
g8
S'TestGetLyrics.test_no_extra'
tp15
sI8
(S'/home/davide/coding/projects/lyricseek/src/test/test_getlyrics.py'
g8
S'TestGetLyrics.test_noone_is_fast_enough'
tp16
sI9
(S'/home/davide/coding/projects/lyricseek/src/test/test_getlyrics.py'
g8
S'TestGetLyrics.test_slow_if_no_matches'
tp17
sI10
(S'/home/davide/coding/projects/lyricseek/src/test/test_getlyrics.py'
g8
S'TestGetLyrics.test_timeout'
tp18
sI11
(S'/home/davide/coding/projects/lyricseek/src/test/test_getlyrics.py'
g8
S'TestParallelism.test_good_methods'
tp19
sI12
(S'/home/davide/coding/projects/lyricseek/src/test/test_getlyrics.py'
g8
S'TestParallelism.test_invalid_method'
tp20
sI13
(S'/home/davide/coding/projects/lyricseek/src/test/test_pluginsystem.py'
S'test_pluginsystem'
p21
S'TestCheck.empty_features_test'
tp22
sI14
(S'/home/davide/coding/projects/lyricseek/src/test/test_pluginsystem.py'
g21
S'TestCheck.empty_name_test'
tp23
sI15
(S'/home/davide/coding/projects/lyricseek/src/test/test_pluginsystem.py'
g21
S'TestCheck.features_wrong_type_test'
tp24
sI16
(S'/home/davide/coding/projects/lyricseek/src/test/test_pluginsystem.py'
g21
S'TestCheck.missing_features_test'
tp25
sI17
(S'/home/davide/coding/projects/lyricseek/src/test/test_pluginsystem.py'
g21
S'TestCheck.missing_getdata_test'
tp26
sI18
(S'/home/davide/coding/projects/lyricseek/src/test/test_pluginsystem.py'
g21
S'TestCheck.missing_name_test'
tp27
sI19
(S'/home/davide/coding/projects/lyricseek/src/test/test_pluginsystem.py'
g21
S'TestCheck.name_wrong_type_test'
tp28
sI20
(S'/home/davide/coding/projects/lyricseek/src/test/test_pluginsystem.py'
g21
S'TestRegister.nonvalid_raises_test'
tp29
ss.